; Function Attrs: mustprogress nofree norecurse nosync nounwind memory(argmem: readwrite) uwtable
define hidden void @_ZNK19OpenColorIO_v2_5dev16RangeMinRenderer5applyEPKvPvl(ptr noundef nonnull readonly align 8 captures(none) dereferenceable(24) %0, ptr noundef readonly captures(none) %1, ptr noundef writeonly captures(none) %2, i64 noundef %3) unnamed_addr #5 align 2 {
  %5 = icmp sgt i64 %3, 0
  br i1 %5, label %.lr.ph, label %._crit_edge

.lr.ph:                                           ; preds = %4
  %6 = getelementptr inbounds nuw i8, ptr %0, i64 16
  br label %7

._crit_edge:                                      ; preds = %7, %4
  ret void

7:                                                ; preds = %.lr.ph, %7
  %.023 = phi i64 [ 0, %.lr.ph ], [ %29, %7 ]
  %.01522 = phi ptr [ %2, %.lr.ph ], [ %28, %7 ]
  %.01621 = phi ptr [ %1, %.lr.ph ], [ %27, %7 ]
  %8 = load float, ptr %6, align 8, !tbaa !47
  %9 = load float, ptr %.01621, align 4, !tbaa !47
  %10 = fcmp olt float %8, %9
  %11 = select i1 %10, float %9, float %8
  store float %11, ptr %.01522, align 4, !tbaa !47
  %12 = getelementptr inbounds nuw i8, ptr %.01621, i64 4
  %13 = load float, ptr %6, align 8, !tbaa !47
  %14 = load float, ptr %12, align 4, !tbaa !47
  %15 = fcmp olt float %13, %14
  %16 = select i1 %15, float %14, float %13
  %17 = getelementptr inbounds nuw i8, ptr %.01522, i64 4
  store float %16, ptr %17, align 4, !tbaa !47
  %18 = getelementptr inbounds nuw i8, ptr %.01621, i64 8
  %19 = load float, ptr %6, align 8, !tbaa !47
  %20 = load float, ptr %18, align 4, !tbaa !47
  %21 = fcmp olt float %19, %20
  %22 = select i1 %21, float %20, float %19
  %23 = getelementptr inbounds nuw i8, ptr %.01522, i64 8
  store float %22, ptr %23, align 4, !tbaa !47
  %24 = getelementptr inbounds nuw i8, ptr %.01621, i64 12
  %25 = load float, ptr %24, align 4, !tbaa !47
  %26 = getelementptr inbounds nuw i8, ptr %.01522, i64 12
  store float %25, ptr %26, align 4, !tbaa !47
  %27 = getelementptr inbounds nuw i8, ptr %.01621, i64 16
  %28 = getelementptr inbounds nuw i8, ptr %.01522, i64 16
  %29 = add nuw nsw i64 %.023, 1
  %exitcond.not = icmp eq i64 %29, %3
  br i1 %exitcond.not, label %._crit_edge, label %7, !llvm.loop !51
}